target datalayout = "e-m:e-p270:32:32-p271:32:32-p272:64:64-i64:64-i128:128-f80:128-n8:16:32:64-S128"
target triple = "x86_64-pc-linux-gnu"

%struct.MCVList = type { i32, i32, i32, i16, [8 x i32], [0 x %struct.MCVItem] }
%struct.MCVItem = type { double, double, ptr, ptr }
%struct.PlannerInfo = type { i32, ptr, ptr, i32, ptr, ptr, ptr, ptr, i32, ptr, ptr, ptr, ptr, ptr, ptr, ptr, ptr, i32, ptr, ptr, ptr, ptr, ptr, i8, ptr, ptr, ptr, ptr, ptr, i32, ptr, ptr, ptr, ptr, ptr, ptr, ptr, i32, ptr, ptr, ptr, i32, ptr, ptr, ptr, ptr, ptr, ptr, [8 x ptr], [8 x ptr], ptr, ptr, ptr, ptr, ptr, ptr, ptr, double, double, double, i32, i8, i8, i8, i8, i8, i8, i8, i32, ptr, ptr, i32, i8, i8, i32, ptr, ptr, ptr, ptr, ptr, ptr, i8, ptr }
%struct.RelOptInfo = type { i32, i32, ptr, double, i8, i8, i8, ptr, ptr, ptr, ptr, ptr, ptr, ptr, ptr, ptr, ptr, i32, i32, i32, i16, i16, ptr, ptr, ptr, ptr, ptr, ptr, ptr, ptr, i32, double, double, ptr, ptr, ptr, i32, i32, i32, i32, i8, ptr, ptr, ptr, ptr, ptr, %struct.QualCost, i32, ptr, i8, i8, ptr, ptr, ptr, ptr, i32, ptr, i8, ptr, ptr, ptr, ptr, ptr, ptr }
%struct.QualCost = type { double, double }
%struct.StatisticExtInfo = type { i32, i32, i8, ptr, i8, ptr, ptr }
%struct.RangeTblEntry = type { i32, ptr, ptr, i32, i32, i8, i8, i32, i32, ptr, ptr, i8, i32, i32, ptr, ptr, ptr, ptr, ptr, i8, ptr, ptr, ptr, i32, i8, ptr, ptr, ptr, ptr, double, ptr, i8, i8, ptr }

; Function Attrs: nounwind uwtable
define dso_local double @mcv_clauselist_selectivity(ptr noundef %0, ptr noundef %1, ptr noundef %2, i32 noundef %3, i32 noundef %4, ptr noundef %5, ptr noundef %6, ptr noundef %7, ptr noundef %8) #0 {
  %10 = alloca ptr, align 8
  %11 = alloca ptr, align 8
  %12 = alloca ptr, align 8
  %13 = alloca i32, align 4
  %14 = alloca i32, align 4
  %15 = alloca ptr, align 8
  %16 = alloca ptr, align 8
  %17 = alloca ptr, align 8
  %18 = alloca ptr, align 8
  %19 = alloca i32, align 4
  %20 = alloca ptr, align 8
  %21 = alloca double, align 8
  %22 = alloca ptr, align 8
  %23 = alloca ptr, align 8
  store ptr %0, ptr %10, align 8
  store ptr %1, ptr %11, align 8
  store ptr %2, ptr %12, align 8
  store i32 %3, ptr %13, align 4
  store i32 %4, ptr %14, align 4
  store ptr %5, ptr %15, align 8
  store ptr %6, ptr %16, align 8
  store ptr %7, ptr %17, align 8
  store ptr %8, ptr %18, align 8
  call void @llvm.lifetime.start.p0(i64 4, ptr %19) #9
  call void @llvm.lifetime.start.p0(i64 8, ptr %20) #9
  call void @llvm.lifetime.start.p0(i64 8, ptr %21) #9
  store double 0.000000e+00, ptr %21, align 8
  call void @llvm.lifetime.start.p0(i64 8, ptr %22) #9
  %24 = load ptr, ptr %10, align 8
  %25 = getelementptr inbounds nuw %struct.PlannerInfo, ptr %24, i32 0, i32 9
  %26 = load ptr, ptr %25, align 8
  %27 = load ptr, ptr %16, align 8
  %28 = getelementptr inbounds nuw %struct.RelOptInfo, ptr %27, i32 0, i32 17
  %29 = load i32, ptr %28, align 8
  %30 = zext i32 %29 to i64
  %31 = getelementptr inbounds nuw ptr, ptr %26, i64 %30
  %32 = load ptr, ptr %31, align 8
  store ptr %32, ptr %22, align 8
  call void @llvm.lifetime.start.p0(i64 8, ptr %23) #9
  store ptr null, ptr %23, align 8
  %33 = load ptr, ptr %11, align 8
  %34 = getelementptr inbounds nuw %struct.StatisticExtInfo, ptr %33, i32 0, i32 1
  %35 = load i32, ptr %34, align 4
  %36 = load ptr, ptr %22, align 8
  %37 = getelementptr inbounds nuw %struct.RangeTblEntry, ptr %36, i32 0, i32 5
  %38 = load i8, ptr %37, align 8, !range !14, !noundef !15
  %39 = trunc i8 %38 to i1
  %40 = call ptr @statext_mcv_load(i32 noundef %35, i1 noundef zeroext %39)
  store ptr %40, ptr %20, align 8
  %41 = load ptr, ptr %10, align 8
  %42 = load ptr, ptr %12, align 8
  %43 = load ptr, ptr %11, align 8
  %44 = getelementptr inbounds nuw %struct.StatisticExtInfo, ptr %43, i32 0, i32 5
  %45 = load ptr, ptr %44, align 8
  %46 = load ptr, ptr %11, align 8
  %47 = getelementptr inbounds nuw %struct.StatisticExtInfo, ptr %46, i32 0, i32 6
  %48 = load ptr, ptr %47, align 8
  %49 = load ptr, ptr %20, align 8
  %50 = call ptr @mcv_get_match_bitmap(ptr noundef %41, ptr noundef %42, ptr noundef %45, ptr noundef %48, ptr noundef %49, i1 noundef zeroext false)
  store ptr %50, ptr %23, align 8
  %51 = load ptr, ptr %17, align 8
  store double 0.000000e+00, ptr %51, align 8
  %52 = load ptr, ptr %18, align 8
  store double 0.000000e+00, ptr %52, align 8
  store i32 0, ptr %19, align 4
  br label %53

53:                                               ; preds = %99, %9
  %54 = load i32, ptr %19, align 4
  %55 = load ptr, ptr %20, align 8
  %56 = getelementptr inbounds nuw %struct.MCVList, ptr %55, i32 0, i32 2
  %57 = load i32, ptr %56, align 8
  %58 = icmp ult i32 %54, %57
  br i1 %58, label %59, label %102

59:                                               ; preds = %53
  %60 = load ptr, ptr %20, align 8
  %61 = getelementptr inbounds nuw %struct.MCVList, ptr %60, i32 0, i32 5
  %62 = load i32, ptr %19, align 4
  %63 = sext i32 %62 to i64
  %64 = getelementptr inbounds [0 x %struct.MCVItem], ptr %61, i64 0, i64 %63
  %65 = getelementptr inbounds nuw %struct.MCVItem, ptr %64, i32 0, i32 0
  %66 = load double, ptr %65, align 8
  %67 = load ptr, ptr %18, align 8
  %68 = load double, ptr %67, align 8
  %69 = fadd double %68, %66
  store double %69, ptr %67, align 8
  %70 = load ptr, ptr %23, align 8
  %71 = load i32, ptr %19, align 4
  %72 = sext i32 %71 to i64
  %73 = getelementptr inbounds i8, ptr %70, i64 %72
  %74 = load i8, ptr %73, align 1, !range !14, !noundef !15
  %75 = trunc i8 %74 to i1
  %76 = zext i1 %75 to i32
  %77 = icmp ne i32 %76, 0
  br i1 %77, label %78, label %98

78:                                               ; preds = %59
  %79 = load ptr, ptr %20, align 8
  %80 = getelementptr inbounds nuw %struct.MCVList, ptr %79, i32 0, i32 5
  %81 = load i32, ptr %19, align 4
  %82 = sext i32 %81 to i64
  %83 = getelementptr inbounds [0 x %struct.MCVItem], ptr %80, i64 0, i64 %82
  %84 = getelementptr inbounds nuw %struct.MCVItem, ptr %83, i32 0, i32 1
  %85 = load double, ptr %84, align 8
  %86 = load ptr, ptr %17, align 8
  %87 = load double, ptr %86, align 8
  %88 = fadd double %87, %85
  store double %88, ptr %86, align 8
  %89 = load ptr, ptr %20, align 8
  %90 = getelementptr inbounds nuw %struct.MCVList, ptr %89, i32 0, i32 5
  %91 = load i32, ptr %19, align 4
  %92 = sext i32 %91 to i64
  %93 = getelementptr inbounds [0 x %struct.MCVItem], ptr %90, i64 0, i64 %92
  %94 = getelementptr inbounds nuw %struct.MCVItem, ptr %93, i32 0, i32 0
  %95 = load double, ptr %94, align 8
  %96 = load double, ptr %21, align 8
  %97 = fadd double %96, %95
  store double %97, ptr %21, align 8
  br label %98

98:                                               ; preds = %78, %59
  br label %99

99:                                               ; preds = %98
  %100 = load i32, ptr %19, align 4
  %101 = add i32 %100, 1
  store i32 %101, ptr %19, align 4
  br label %53, !llvm.loop !37

102:                                              ; preds = %53
  %103 = load double, ptr %21, align 8
  call void @llvm.lifetime.end.p0(i64 8, ptr %23) #9
  call void @llvm.lifetime.end.p0(i64 8, ptr %22) #9
  call void @llvm.lifetime.end.p0(i64 8, ptr %21) #9
  call void @llvm.lifetime.end.p0(i64 8, ptr %20) #9
  call void @llvm.lifetime.end.p0(i64 4, ptr %19) #9
  ret double %103
}