; Function Attrs: nounwind uwtable
define dso_local double @mcv_clauselist_selectivity(ptr noundef readonly captures(none) %0, ptr noundef readonly captures(none) %1, ptr noundef captures(address_is_null) %2, i32 noundef %3, i32 noundef %4, ptr noundef readnone captures(none) %5, ptr noundef readonly captures(none) %6, ptr noundef captures(none) initializes((0, 8)) %7, ptr noundef captures(none) initializes((0, 8)) %8) local_unnamed_addr #0 {
  %10 = getelementptr inbounds nuw i8, ptr %0, i64 72
  %11 = load ptr, ptr %10, align 8
  %12 = getelementptr inbounds nuw i8, ptr %6, i64 112
  %13 = load i32, ptr %12, align 8
  %14 = zext i32 %13 to i64
  %15 = getelementptr inbounds nuw ptr, ptr %11, i64 %14
  %16 = load ptr, ptr %15, align 8
  %17 = getelementptr inbounds nuw i8, ptr %1, i64 4
  %18 = load i32, ptr %17, align 4
  %19 = getelementptr inbounds nuw i8, ptr %16, i64 32
  %20 = load i8, ptr %19, align 8, !range !9, !noundef !10
  %21 = trunc nuw i8 %20 to i1
  %22 = tail call ptr @statext_mcv_load(i32 noundef %18, i1 noundef zeroext %21)
  %23 = getelementptr inbounds nuw i8, ptr %1, i64 32
  %24 = load ptr, ptr %23, align 8
  %25 = getelementptr inbounds nuw i8, ptr %1, i64 40
  %26 = load ptr, ptr %25, align 8
  %27 = tail call fastcc ptr @mcv_get_match_bitmap(ptr noundef %2, ptr noundef %24, ptr noundef %26, ptr noundef %22, i1 noundef zeroext false)
  store double 0.000000e+00, ptr %7, align 8
  store double 0.000000e+00, ptr %8, align 8
  %28 = getelementptr inbounds nuw i8, ptr %22, i64 8
  %29 = load i32, ptr %28, align 8
  %.not = icmp eq i32 %29, 0
  br i1 %.not, label %._crit_edge, label %.lr.ph

.lr.ph:                                           ; preds = %9
  %30 = getelementptr inbounds nuw i8, ptr %22, i64 48
  br label %31

31:                                               ; preds = %.lr.ph, %47
  %.027 = phi i32 [ 0, %.lr.ph ], [ %48, %47 ]
  %.02526 = phi double [ 0.000000e+00, %.lr.ph ], [ %.1, %47 ]
  %32 = sext i32 %.027 to i64
  %33 = getelementptr inbounds [0 x %struct.MCVItem], ptr %30, i64 0, i64 %32
  %34 = load double, ptr %33, align 8
  %35 = load double, ptr %8, align 8
  %36 = fadd double %34, %35
  store double %36, ptr %8, align 8
  %37 = getelementptr inbounds i8, ptr %27, i64 %32
  %38 = load i8, ptr %37, align 1, !range !9, !noundef !10
  %39 = trunc nuw i8 %38 to i1
  br i1 %39, label %40, label %47

40:                                               ; preds = %31
  %41 = getelementptr inbounds nuw i8, ptr %33, i64 8
  %42 = load double, ptr %41, align 8
  %43 = load double, ptr %7, align 8
  %44 = fadd double %42, %43
  store double %44, ptr %7, align 8
  %45 = load double, ptr %33, align 8
  %46 = fadd double %.02526, %45
  br label %47

47:                                               ; preds = %31, %40
  %.1 = phi double [ %46, %40 ], [ %.02526, %31 ]
  %48 = add nuw i32 %.027, 1
  %49 = load i32, ptr %28, align 8
  %50 = icmp ult i32 %48, %49
  br i1 %50, label %31, label %._crit_edge, !llvm.loop !38

._crit_edge:                                      ; preds = %47, %9
  %.025.lcssa = phi double [ 0.000000e+00, %9 ], [ %.1, %47 ]
  ret double %.025.lcssa
}